target datalayout = "e-m:e-p270:32:32-p271:32:32-p272:64:64-i64:64-i128:128-f80:128-n8:16:32:64-S128"
target triple = "x86_64-pc-linux-gnu"

%struct.AVFilterGraph = type { ptr, ptr, i32, ptr, i32, i32, ptr, ptr, ptr }
%struct.AVFilterContext = type { ptr, ptr, ptr, ptr, ptr, i32, ptr, ptr, i32, ptr, ptr, i32, i32, ptr, ptr, ptr, ptr, i32, ptr, i32, i32 }

; Function Attrs: nounwind uwtable
define ptr @avfilter_graph_get_filter(ptr noundef %0, ptr noundef %1) #0 {
  %3 = alloca ptr, align 8
  %4 = alloca ptr, align 8
  %5 = alloca ptr, align 8
  %6 = alloca i32, align 4
  %7 = alloca i32, align 4
  store ptr %0, ptr %4, align 8, !tbaa !9
  store ptr %1, ptr %5, align 8, !tbaa !53
  call void @llvm.lifetime.start.p0(i64 4, ptr %6) #11
  store i32 0, ptr %6, align 4, !tbaa !20
  br label %8

8:                                                ; preds = %47, %2
  %9 = load i32, ptr %6, align 4, !tbaa !20
  %10 = load ptr, ptr %4, align 8, !tbaa !9
  %11 = getelementptr inbounds nuw %struct.AVFilterGraph, ptr %10, i32 0, i32 2
  %12 = load i32, ptr %11, align 8, !tbaa !21
  %13 = icmp ult i32 %9, %12
  br i1 %13, label %14, label %50

14:                                               ; preds = %8
  %15 = load ptr, ptr %4, align 8, !tbaa !9
  %16 = getelementptr inbounds nuw %struct.AVFilterGraph, ptr %15, i32 0, i32 1
  %17 = load ptr, ptr %16, align 8, !tbaa !22
  %18 = load i32, ptr %6, align 4, !tbaa !20
  %19 = sext i32 %18 to i64
  %20 = getelementptr inbounds ptr, ptr %17, i64 %19
  %21 = load ptr, ptr %20, align 8, !tbaa !18
  %22 = getelementptr inbounds nuw %struct.AVFilterContext, ptr %21, i32 0, i32 2
  %23 = load ptr, ptr %22, align 8, !tbaa !63
  %24 = icmp ne ptr %23, null
  br i1 %24, label %25, label %46

25:                                               ; preds = %14
  %26 = load ptr, ptr %5, align 8, !tbaa !53
  %27 = load ptr, ptr %4, align 8, !tbaa !9
  %28 = getelementptr inbounds nuw %struct.AVFilterGraph, ptr %27, i32 0, i32 1
  %29 = load ptr, ptr %28, align 8, !tbaa !22
  %30 = load i32, ptr %6, align 4, !tbaa !20
  %31 = sext i32 %30 to i64
  %32 = getelementptr inbounds ptr, ptr %29, i64 %31
  %33 = load ptr, ptr %32, align 8, !tbaa !18
  %34 = getelementptr inbounds nuw %struct.AVFilterContext, ptr %33, i32 0, i32 2
  %35 = load ptr, ptr %34, align 8, !tbaa !63
  %36 = call i32 @strcmp(ptr noundef %26, ptr noundef %35) #12
  %37 = icmp ne i32 %36, 0
  br i1 %37, label %46, label %38

38:                                               ; preds = %25
  %39 = load ptr, ptr %4, align 8, !tbaa !9
  %40 = getelementptr inbounds nuw %struct.AVFilterGraph, ptr %39, i32 0, i32 1
  %41 = load ptr, ptr %40, align 8, !tbaa !22
  %42 = load i32, ptr %6, align 4, !tbaa !20
  %43 = sext i32 %42 to i64
  %44 = getelementptr inbounds ptr, ptr %41, i64 %43
  %45 = load ptr, ptr %44, align 8, !tbaa !18
  store ptr %45, ptr %3, align 8
  store i32 1, ptr %7, align 4
  br label %51

46:                                               ; preds = %25, %14
  br label %47

47:                                               ; preds = %46
  %48 = load i32, ptr %6, align 4, !tbaa !20
  %49 = add nsw i32 %48, 1
  store i32 %49, ptr %6, align 4, !tbaa !20
  br label %8, !llvm.loop !64

50:                                               ; preds = %8
  store ptr null, ptr %3, align 8
  store i32 1, ptr %7, align 4
  br label %51

51:                                               ; preds = %50, %38
  call void @llvm.lifetime.end.p0(i64 4, ptr %6) #11
  %52 = load ptr, ptr %3, align 8
  ret ptr %52
}