; Function Attrs: nofree norecurse nounwind memory(read, inaccessiblemem: none) uwtable
define ptr @avfilter_graph_get_filter(ptr noundef readonly captures(none) %0, ptr noundef readonly captures(none) %1) local_unnamed_addr #6 {
  %3 = getelementptr inbounds nuw i8, ptr %0, i64 16
  %4 = load i32, ptr %3, align 8, !tbaa !14
  %.not16 = icmp eq i32 %4, 0
  br i1 %.not16, label %._crit_edge, label %.lr.ph

.lr.ph:                                           ; preds = %2
  %5 = getelementptr inbounds nuw i8, ptr %0, i64 8
  %6 = load ptr, ptr %5, align 8, !tbaa !15
  %wide.trip.count = zext i32 %4 to i64
  br label %7

7:                                                ; preds = %.lr.ph, %14
  %indvars.iv = phi i64 [ 0, %.lr.ph ], [ %indvars.iv.next, %14 ]
  %8 = getelementptr inbounds nuw ptr, ptr %6, i64 %indvars.iv
  %9 = load ptr, ptr %8, align 8, !tbaa !18
  %10 = getelementptr inbounds nuw i8, ptr %9, i64 16
  %11 = load ptr, ptr %10, align 8, !tbaa !53
  %.not = icmp eq ptr %11, null
  br i1 %.not, label %14, label %12

12:                                               ; preds = %7
  %13 = tail call i32 @strcmp(ptr noundef nonnull dereferenceable(1) %1, ptr noundef nonnull dereferenceable(1) %11) #15
  %.not12 = icmp eq i32 %13, 0
  br i1 %.not12, label %._crit_edge, label %14

14:                                               ; preds = %7, %12
  %indvars.iv.next = add nuw nsw i64 %indvars.iv, 1
  %exitcond.not = icmp eq i64 %indvars.iv.next, %wide.trip.count
  br i1 %exitcond.not, label %._crit_edge, label %7, !llvm.loop !54

._crit_edge:                                      ; preds = %12, %14, %2
  %.010 = phi ptr [ null, %2 ], [ null, %14 ], [ %9, %12 ]
  ret ptr %.010
}